; Function Attrs: mustprogress null_pointer_is_valid sspstrong uwtable
define void @_ZN11ManufDialog16on_searchToggledEv(ptr noundef readonly align 8 captures(none) dereferenceable_or_null(168) %0) #0 align 2 personality ptr @__gxx_personality_v0 {
  %2 = alloca %class.QString, align 8
  %3 = alloca %class.QString, align 8
  %4 = getelementptr inbounds nuw i8, ptr %0, i64 144
  %5 = load ptr, ptr %4, align 8
  %6 = getelementptr inbounds nuw i8, ptr %5, i64 16
  %7 = load ptr, ptr %6, align 8
  %8 = tail call noundef zeroext i1 @_ZNK15QAbstractButton9isCheckedEv(ptr noundef align 8 dereferenceable_or_null(40) %7)
  %9 = load ptr, ptr %4, align 8
  br i1 %8, label %10, label %24

10:                                               ; preds = %1
  %11 = getelementptr inbounds nuw i8, ptr %9, i64 56
  %12 = load ptr, ptr %11, align 8
  call void @llvm.lifetime.start.p0(i64 24, ptr nonnull %2) #20
  call void @_ZNK11QMetaObject2trEPKcS1_i(ptr dead_on_unwind nonnull writable sret(%class.QString) align 8 %2, ptr noundef nonnull align 8 dereferenceable_or_null(56) @_ZN11ManufDialog16staticMetaObjectE, ptr noundef nonnull @.str.4, ptr noundef null, i32 noundef -1)
  invoke void @_ZN9QLineEdit18setPlaceholderTextERK7QString(ptr noundef align 8 dereferenceable_or_null(40) %12, ptr noundef nonnull align 8 dereferenceable(24) %2)
          to label %13 unwind label %18

13:                                               ; preds = %10
  %14 = load ptr, ptr %2, align 8
  %.not.i.i.i = icmp eq ptr %14, null
  br i1 %.not.i.i.i, label %_ZN7QStringD2Ev.exit, label %_ZN17QArrayDataPointerIDsE5derefEv.exit.i.i

_ZN17QArrayDataPointerIDsE5derefEv.exit.i.i:      ; preds = %13
  %15 = atomicrmw sub ptr %14, i32 1 seq_cst, align 4
  %.not.i.i = icmp eq i32 %15, 1
  br i1 %.not.i.i, label %16, label %_ZN7QStringD2Ev.exit

16:                                               ; preds = %_ZN17QArrayDataPointerIDsE5derefEv.exit.i.i
  %17 = load ptr, ptr %2, align 8
  call void @_ZN10QArrayData10deallocateEPS_xx(ptr noundef %17, i64 noundef 2, i64 noundef 8) #20
  br label %_ZN7QStringD2Ev.exit

_ZN7QStringD2Ev.exit:                             ; preds = %13, %_ZN17QArrayDataPointerIDsE5derefEv.exit.i.i, %16
  call void @llvm.lifetime.end.p0(i64 24, ptr nonnull %2) #20
  br label %44

18:                                               ; preds = %10
  %19 = landingpad { ptr, i32 }
          cleanup
  %20 = load ptr, ptr %2, align 8
  %.not.i.i.i4 = icmp eq ptr %20, null
  br i1 %.not.i.i.i4, label %_ZN7QStringD2Ev.exit7, label %_ZN17QArrayDataPointerIDsE5derefEv.exit.i.i5

_ZN17QArrayDataPointerIDsE5derefEv.exit.i.i5:     ; preds = %18
  %21 = atomicrmw sub ptr %20, i32 1 seq_cst, align 4
  %.not.i.i6 = icmp eq i32 %21, 1
  br i1 %.not.i.i6, label %22, label %_ZN7QStringD2Ev.exit7

22:                                               ; preds = %_ZN17QArrayDataPointerIDsE5derefEv.exit.i.i5
  %23 = load ptr, ptr %2, align 8
  call void @_ZN10QArrayData10deallocateEPS_xx(ptr noundef %23, i64 noundef 2, i64 noundef 8) #20
  br label %_ZN7QStringD2Ev.exit7

_ZN7QStringD2Ev.exit7:                            ; preds = %18, %_ZN17QArrayDataPointerIDsE5derefEv.exit.i.i5, %22
  call void @llvm.lifetime.end.p0(i64 24, ptr nonnull %2) #20
  br label %45

24:                                               ; preds = %1
  %25 = getelementptr inbounds nuw i8, ptr %9, i64 24
  %26 = load ptr, ptr %25, align 8
  %27 = tail call noundef zeroext i1 @_ZNK15QAbstractButton9isCheckedEv(ptr noundef align 8 dereferenceable_or_null(40) %26)
  br i1 %27, label %28, label %43

28:                                               ; preds = %24
  %29 = load ptr, ptr %4, align 8
  %30 = getelementptr inbounds nuw i8, ptr %29, i64 56
  %31 = load ptr, ptr %30, align 8
  call void @llvm.lifetime.start.p0(i64 24, ptr nonnull %3) #20
  call void @_ZNK11QMetaObject2trEPKcS1_i(ptr dead_on_unwind nonnull writable sret(%class.QString) align 8 %3, ptr noundef nonnull align 8 dereferenceable_or_null(56) @_ZN11ManufDialog16staticMetaObjectE, ptr noundef nonnull @.str.10, ptr noundef null, i32 noundef -1)
  invoke void @_ZN9QLineEdit18setPlaceholderTextERK7QString(ptr noundef align 8 dereferenceable_or_null(40) %31, ptr noundef nonnull align 8 dereferenceable(24) %3)
          to label %32 unwind label %37

32:                                               ; preds = %28
  %33 = load ptr, ptr %3, align 8
  %.not.i.i.i8 = icmp eq ptr %33, null
  br i1 %.not.i.i.i8, label %_ZN7QStringD2Ev.exit11, label %_ZN17QArrayDataPointerIDsE5derefEv.exit.i.i9

_ZN17QArrayDataPointerIDsE5derefEv.exit.i.i9:     ; preds = %32
  %34 = atomicrmw sub ptr %33, i32 1 seq_cst, align 4
  %.not.i.i10 = icmp eq i32 %34, 1
  br i1 %.not.i.i10, label %35, label %_ZN7QStringD2Ev.exit11

35:                                               ; preds = %_ZN17QArrayDataPointerIDsE5derefEv.exit.i.i9
  %36 = load ptr, ptr %3, align 8
  call void @_ZN10QArrayData10deallocateEPS_xx(ptr noundef %36, i64 noundef 2, i64 noundef 8) #20
  br label %_ZN7QStringD2Ev.exit11

_ZN7QStringD2Ev.exit11:                           ; preds = %32, %_ZN17QArrayDataPointerIDsE5derefEv.exit.i.i9, %35
  call void @llvm.lifetime.end.p0(i64 24, ptr nonnull %3) #20
  br label %44

37:                                               ; preds = %28
  %38 = landingpad { ptr, i32 }
          cleanup
  %39 = load ptr, ptr %3, align 8
  %.not.i.i.i12 = icmp eq ptr %39, null
  br i1 %.not.i.i.i12, label %_ZN7QStringD2Ev.exit15, label %_ZN17QArrayDataPointerIDsE5derefEv.exit.i.i13

_ZN17QArrayDataPointerIDsE5derefEv.exit.i.i13:    ; preds = %37
  %40 = atomicrmw sub ptr %39, i32 1 seq_cst, align 4
  %.not.i.i14 = icmp eq i32 %40, 1
  br i1 %.not.i.i14, label %41, label %_ZN7QStringD2Ev.exit15

41:                                               ; preds = %_ZN17QArrayDataPointerIDsE5derefEv.exit.i.i13
  %42 = load ptr, ptr %3, align 8
  call void @_ZN10QArrayData10deallocateEPS_xx(ptr noundef %42, i64 noundef 2, i64 noundef 8) #20
  br label %_ZN7QStringD2Ev.exit15

_ZN7QStringD2Ev.exit15:                           ; preds = %37, %_ZN17QArrayDataPointerIDsE5derefEv.exit.i.i13, %41
  call void @llvm.lifetime.end.p0(i64 24, ptr nonnull %3) #20
  br label %45

43:                                               ; preds = %24
  tail call void (ptr, i32, ptr, i64, ptr, ptr, ...) @ws_log_fatal_full(ptr noundef nonnull @.str.11, i32 noundef 7, ptr noundef nonnull @.str.12, i64 noundef 153, ptr noundef nonnull @__func__._ZN11ManufDialog16on_searchToggledEv, ptr noundef nonnull @.str.13) #22
  unreachable

44:                                               ; preds = %_ZN7QStringD2Ev.exit11, %_ZN7QStringD2Ev.exit
  ret void

45:                                               ; preds = %_ZN7QStringD2Ev.exit15, %_ZN7QStringD2Ev.exit7
  %.pn = phi { ptr, i32 } [ %19, %_ZN7QStringD2Ev.exit7 ], [ %38, %_ZN7QStringD2Ev.exit15 ]
  resume { ptr, i32 } %.pn
}